target datalayout = "e-m:e-p270:32:32-p271:32:32-p272:64:64-i64:64-i128:128-f80:128-n8:16:32:64-S128"
target triple = "x86_64-pc-linux-gnu"

%struct.ecx_key_st = type { ptr, ptr, i8, [57 x i8], ptr, i64, i32, %struct.CRYPTO_REF_COUNT }
%struct.CRYPTO_REF_COUNT = type { i32 }
%struct.PROV_ECX_CTX = type { ptr, ptr, ptr, ptr, i32, i32, ptr, i64, ptr, ptr }

@.str.2 = private unnamed_addr constant [5 x i8] c"HKDF\00", align 1
@.str.5 = private unnamed_addr constant [7 x i8] c"X25519\00", align 1
@.str.6 = private unnamed_addr constant [5 x i8] c"X448\00", align 1

; Function Attrs: nounwind uwtable
define internal ptr @get_kem_info(ptr noundef %0) #0 {
  %2 = alloca ptr, align 8
  %3 = alloca ptr, align 8
  store ptr %0, ptr %2, align 8, !tbaa !3
  call void @llvm.lifetime.start.p0(i64 8, ptr %3) #5
  store ptr null, ptr %3, align 8, !tbaa !8
  %4 = load ptr, ptr %2, align 8, !tbaa !3
  %5 = getelementptr inbounds nuw %struct.ecx_key_st, ptr %4, i32 0, i32 6
  %6 = load i32, ptr %5, align 8, !tbaa !29
  %7 = icmp eq i32 %6, 0
  br i1 %7, label %8, label %9

8:                                                ; preds = %1
  store ptr @.str.5, ptr %3, align 8, !tbaa !8
  br label %10

9:                                                ; preds = %1
  store ptr @.str.6, ptr %3, align 8, !tbaa !8
  br label %10

10:                                               ; preds = %9, %8
  %11 = load ptr, ptr %3, align 8, !tbaa !8
  %12 = call ptr @ossl_HPKE_KEM_INFO_find_curve(ptr noundef %11)
  call void @llvm.lifetime.end.p0(i64 8, ptr %3) #5
  ret ptr %12
}

; Function Attrs: nounwind uwtable
define internal i32 @sender_authkey_set(ptr noundef %0, ptr noundef %1) #0 {
  %3 = alloca i32, align 4
  %4 = alloca ptr, align 8
  %5 = alloca ptr, align 8
  store ptr %0, ptr %4, align 8, !tbaa !16
  store ptr %1, ptr %5, align 8, !tbaa !3
  %6 = load ptr, ptr %4, align 8, !tbaa !16
  %7 = getelementptr inbounds nuw %struct.PROV_ECX_CTX, ptr %6, i32 0, i32 1
  %8 = load ptr, ptr %7, align 8, !tbaa !49
  call void @ossl_ecx_key_free(ptr noundef %8)
  %9 = load ptr, ptr %4, align 8, !tbaa !16
  %10 = getelementptr inbounds nuw %struct.PROV_ECX_CTX, ptr %9, i32 0, i32 1
  store ptr null, ptr %10, align 8, !tbaa !49
  %11 = load ptr, ptr %5, align 8, !tbaa !3
  %12 = icmp ne ptr %11, null
  br i1 %12, label %13, label %22

13:                                               ; preds = %2
  %14 = load ptr, ptr %5, align 8, !tbaa !3
  %15 = call i32 @ossl_ecx_key_up_ref(ptr noundef %14)
  %16 = icmp ne i32 %15, 0
  br i1 %16, label %18, label %17

17:                                               ; preds = %13
  store i32 0, ptr %3, align 4
  br label %23

18:                                               ; preds = %13
  %19 = load ptr, ptr %5, align 8, !tbaa !3
  %20 = load ptr, ptr %4, align 8, !tbaa !16
  %21 = getelementptr inbounds nuw %struct.PROV_ECX_CTX, ptr %20, i32 0, i32 1
  store ptr %19, ptr %21, align 8, !tbaa !49
  br label %22

22:                                               ; preds = %18, %2
  store i32 1, ptr %3, align 4
  br label %23

23:                                               ; preds = %22, %17
  %24 = load i32, ptr %3, align 4
  ret i32 %24
}

; Function Attrs: nounwind uwtable
define internal i32 @ecx_match_params(ptr noundef %0, ptr noundef %1) #0 {
  %3 = alloca ptr, align 8
  %4 = alloca ptr, align 8
  store ptr %0, ptr %3, align 8, !tbaa !3
  store ptr %1, ptr %4, align 8, !tbaa !3
  %5 = load ptr, ptr %3, align 8, !tbaa !3
  %6 = getelementptr inbounds nuw %struct.ecx_key_st, ptr %5, i32 0, i32 6
  %7 = load i32, ptr %6, align 8, !tbaa !29
  %8 = load ptr, ptr %4, align 8, !tbaa !3
  %9 = getelementptr inbounds nuw %struct.ecx_key_st, ptr %8, i32 0, i32 6
  %10 = load i32, ptr %9, align 8, !tbaa !29
  %11 = icmp eq i32 %7, %10
  br i1 %11, label %12, label %20

12:                                               ; preds = %2
  %13 = load ptr, ptr %3, align 8, !tbaa !3
  %14 = getelementptr inbounds nuw %struct.ecx_key_st, ptr %13, i32 0, i32 5
  %15 = load i64, ptr %14, align 8, !tbaa !48
  %16 = load ptr, ptr %4, align 8, !tbaa !3
  %17 = getelementptr inbounds nuw %struct.ecx_key_st, ptr %16, i32 0, i32 5
  %18 = load i64, ptr %17, align 8, !tbaa !48
  %19 = icmp eq i64 %15, %18
  br label %20

20:                                               ; preds = %12, %2
  %21 = phi i1 [ false, %2 ], [ %19, %12 ]
  %22 = zext i1 %21 to i32
  ret i32 %22
}

; Function Attrs: nounwind uwtable
define internal i32 @recipient_key_set(ptr noundef %0, ptr noundef %1) #0 {
  %3 = alloca i32, align 4
  %4 = alloca ptr, align 8
  %5 = alloca ptr, align 8
  store ptr %0, ptr %4, align 8, !tbaa !16
  store ptr %1, ptr %5, align 8, !tbaa !3
  %6 = load ptr, ptr %4, align 8, !tbaa !16
  %7 = getelementptr inbounds nuw %struct.PROV_ECX_CTX, ptr %6, i32 0, i32 0
  %8 = load ptr, ptr %7, align 8, !tbaa !43
  call void @ossl_ecx_key_free(ptr noundef %8)
  %9 = load ptr, ptr %4, align 8, !tbaa !16
  %10 = getelementptr inbounds nuw %struct.PROV_ECX_CTX, ptr %9, i32 0, i32 0
  store ptr null, ptr %10, align 8, !tbaa !43
  %11 = load ptr, ptr %5, align 8, !tbaa !3
  %12 = icmp ne ptr %11, null
  br i1 %12, label %13, label %34

13:                                               ; preds = %2
  %14 = load ptr, ptr %5, align 8, !tbaa !3
  %15 = call ptr @get_kem_info(ptr noundef %14)
  %16 = load ptr, ptr %4, align 8, !tbaa !16
  %17 = getelementptr inbounds nuw %struct.PROV_ECX_CTX, ptr %16, i32 0, i32 9
  store ptr %15, ptr %17, align 8, !tbaa !46
  %18 = load ptr, ptr %4, align 8, !tbaa !16
  %19 = getelementptr inbounds nuw %struct.PROV_ECX_CTX, ptr %18, i32 0, i32 9
  %20 = load ptr, ptr %19, align 8, !tbaa !46
  %21 = icmp eq ptr %20, null
  br i1 %21, label %22, label %23

22:                                               ; preds = %13
  store i32 -2, ptr %3, align 4
  br label %35

23:                                               ; preds = %13
  %24 = load ptr, ptr %4, align 8, !tbaa !16
  %25 = getelementptr inbounds nuw %struct.PROV_ECX_CTX, ptr %24, i32 0, i32 8
  store ptr @.str.2, ptr %25, align 8, !tbaa !47
  %26 = load ptr, ptr %5, align 8, !tbaa !3
  %27 = call i32 @ossl_ecx_key_up_ref(ptr noundef %26)
  %28 = icmp ne i32 %27, 0
  br i1 %28, label %30, label %29

29:                                               ; preds = %23
  store i32 0, ptr %3, align 4
  br label %35

30:                                               ; preds = %23
  %31 = load ptr, ptr %5, align 8, !tbaa !3
  %32 = load ptr, ptr %4, align 8, !tbaa !16
  %33 = getelementptr inbounds nuw %struct.PROV_ECX_CTX, ptr %32, i32 0, i32 0
  store ptr %31, ptr %33, align 8, !tbaa !43
  br label %34

34:                                               ; preds = %30, %2
  store i32 1, ptr %3, align 4
  br label %35

35:                                               ; preds = %34, %29, %22
  %36 = load i32, ptr %3, align 4
  ret i32 %36
}

; Function Attrs: nounwind uwtable
define internal i32 @ecx_key_check(ptr noundef %0, i32 noundef %1) #0 {
  %3 = alloca i32, align 4
  %4 = alloca ptr, align 8
  %5 = alloca i32, align 4
  store ptr %0, ptr %4, align 8, !tbaa !3
  store i32 %1, ptr %5, align 4, !tbaa !12
  %6 = load ptr, ptr %4, align 8, !tbaa !3
  %7 = getelementptr inbounds nuw %struct.ecx_key_st, ptr %6, i32 0, i32 4
  %8 = load ptr, ptr %7, align 8, !tbaa !45
  %9 = icmp eq ptr %8, null
  br i1 %9, label %10, label %14

10:                                               ; preds = %2
  %11 = load i32, ptr %5, align 4, !tbaa !12
  %12 = icmp eq i32 %11, 0
  %13 = zext i1 %12 to i32
  store i32 %13, ptr %3, align 4
  br label %15

14:                                               ; preds = %2
  store i32 1, ptr %3, align 4
  br label %15

15:                                               ; preds = %14, %10
  %16 = load i32, ptr %3, align 4
  ret i32 %16
}

; Function Attrs: nounwind uwtable
define internal i32 @ecxkem_init(ptr noundef %0, i32 noundef %1, ptr noundef %2, ptr noundef %3, ptr noundef %4) #0 {
  %6 = alloca i32, align 4
  %7 = alloca ptr, align 8
  %8 = alloca i32, align 4
  %9 = alloca ptr, align 8
  %10 = alloca ptr, align 8
  %11 = alloca ptr, align 8
  %12 = alloca i32, align 4
  %13 = alloca ptr, align 8
  %14 = alloca ptr, align 8
  %15 = alloca ptr, align 8
  %16 = alloca i32, align 4
  store ptr %0, ptr %7, align 8, !tbaa !16
  store i32 %1, ptr %8, align 4, !tbaa !12
  store ptr %2, ptr %9, align 8, !tbaa !16
  store ptr %3, ptr %10, align 8, !tbaa !16
  store ptr %4, ptr %11, align 8, !tbaa !32
  call void @llvm.lifetime.start.p0(i64 4, ptr %12) #5
  call void @llvm.lifetime.start.p0(i64 8, ptr %13) #5
  %17 = load ptr, ptr %7, align 8, !tbaa !16
  store ptr %17, ptr %13, align 8, !tbaa !16
  call void @llvm.lifetime.start.p0(i64 8, ptr %14) #5
  %18 = load ptr, ptr %9, align 8, !tbaa !16
  store ptr %18, ptr %14, align 8, !tbaa !3
  call void @llvm.lifetime.start.p0(i64 8, ptr %15) #5
  %19 = load ptr, ptr %10, align 8, !tbaa !16
  store ptr %19, ptr %15, align 8, !tbaa !3
  %20 = call i32 @ossl_prov_is_running()
  %21 = icmp ne i32 %20, 0
  br i1 %21, label %23, label %22

22:                                               ; preds = %5
  store i32 0, ptr %6, align 4
  store i32 1, ptr %16, align 4
  br label %70

23:                                               ; preds = %5
  %24 = load ptr, ptr %14, align 8, !tbaa !3
  %25 = load i32, ptr %8, align 4, !tbaa !12
  %26 = icmp eq i32 %25, 8192
  %27 = zext i1 %26 to i32
  %28 = call i32 @ecx_key_check(ptr noundef %24, i32 noundef %27)
  %29 = icmp ne i32 %28, 0
  br i1 %29, label %31, label %30

30:                                               ; preds = %23
  store i32 0, ptr %6, align 4
  store i32 1, ptr %16, align 4
  br label %70

31:                                               ; preds = %23
  %32 = load ptr, ptr %13, align 8, !tbaa !16
  %33 = load ptr, ptr %14, align 8, !tbaa !3
  %34 = call i32 @recipient_key_set(ptr noundef %32, ptr noundef %33)
  store i32 %34, ptr %12, align 4, !tbaa !12
  %35 = load i32, ptr %12, align 4, !tbaa !12
  %36 = icmp sle i32 %35, 0
  br i1 %36, label %37, label %39

37:                                               ; preds = %31
  %38 = load i32, ptr %12, align 4, !tbaa !12
  store i32 %38, ptr %6, align 4
  store i32 1, ptr %16, align 4
  br label %70

39:                                               ; preds = %31
  %40 = load ptr, ptr %15, align 8, !tbaa !3
  %41 = icmp ne ptr %40, null
  br i1 %41, label %42, label %63

42:                                               ; preds = %39
  %43 = load ptr, ptr %15, align 8, !tbaa !3
  %44 = load ptr, ptr %13, align 8, !tbaa !16
  %45 = getelementptr inbounds nuw %struct.PROV_ECX_CTX, ptr %44, i32 0, i32 0
  %46 = load ptr, ptr %45, align 8, !tbaa !43
  %47 = call i32 @ecx_match_params(ptr noundef %43, ptr noundef %46)
  %48 = icmp ne i32 %47, 0
  br i1 %48, label %49, label %61

49:                                               ; preds = %42
  %50 = load ptr, ptr %15, align 8, !tbaa !3
  %51 = load i32, ptr %8, align 4, !tbaa !12
  %52 = icmp eq i32 %51, 4096
  %53 = zext i1 %52 to i32
  %54 = call i32 @ecx_key_check(ptr noundef %50, i32 noundef %53)
  %55 = icmp ne i32 %54, 0
  br i1 %55, label %56, label %61

56:                                               ; preds = %49
  %57 = load ptr, ptr %13, align 8, !tbaa !16
  %58 = load ptr, ptr %15, align 8, !tbaa !3
  %59 = call i32 @sender_authkey_set(ptr noundef %57, ptr noundef %58)
  %60 = icmp ne i32 %59, 0
  br i1 %60, label %62, label %61

61:                                               ; preds = %56, %49, %42
  store i32 0, ptr %6, align 4
  store i32 1, ptr %16, align 4
  br label %70

62:                                               ; preds = %56
  br label %63

63:                                               ; preds = %62, %39
  %64 = load i32, ptr %8, align 4, !tbaa !12
  %65 = load ptr, ptr %13, align 8, !tbaa !16
  %66 = getelementptr inbounds nuw %struct.PROV_ECX_CTX, ptr %65, i32 0, i32 5
  store i32 %64, ptr %66, align 4, !tbaa !44
  %67 = load ptr, ptr %7, align 8, !tbaa !16
  %68 = load ptr, ptr %11, align 8, !tbaa !32
  %69 = call i32 @ecxkem_set_ctx_params(ptr noundef %67, ptr noundef %68)
  store i32 %69, ptr %6, align 4
  store i32 1, ptr %16, align 4
  br label %70

70:                                               ; preds = %63, %61, %37, %30, %22
  call void @llvm.lifetime.end.p0(i64 8, ptr %15) #5
  call void @llvm.lifetime.end.p0(i64 8, ptr %14) #5
  call void @llvm.lifetime.end.p0(i64 8, ptr %13) #5
  call void @llvm.lifetime.end.p0(i64 4, ptr %12) #5
  %71 = load i32, ptr %6, align 4
  ret i32 %71
}

; Function Attrs: nounwind uwtable
define internal i32 @ecxkem_encapsulate_init(ptr noundef %0, ptr noundef %1, ptr noundef %2) #0 {
  %4 = alloca ptr, align 8
  %5 = alloca ptr, align 8
  %6 = alloca ptr, align 8
  store ptr %0, ptr %4, align 8, !tbaa !16
  store ptr %1, ptr %5, align 8, !tbaa !16
  store ptr %2, ptr %6, align 8, !tbaa !32
  %7 = load ptr, ptr %4, align 8, !tbaa !16
  %8 = load ptr, ptr %5, align 8, !tbaa !16
  %9 = load ptr, ptr %6, align 8, !tbaa !32
  %10 = call i32 @ecxkem_init(ptr noundef %7, i32 noundef 4096, ptr noundef %8, ptr noundef null, ptr noundef %9)
  ret i32 %10
}